; Function Attrs: mustprogress uwtable
define hidden void @_ZN3smt27justification_proof_wrapper6del_ehER11ast_manager(ptr noundef nonnull align 8 captures(none) dereferenceable(24) %0, ptr noundef nonnull align 8 dereferenceable(976) %1) unnamed_addr #5 align 2 {
  %3 = getelementptr inbounds nuw i8, ptr %0, i64 16
  %4 = load ptr, ptr %3, align 8, !tbaa !6
  %.not.i = icmp eq ptr %4, null
  br i1 %.not.i, label %_ZN11ast_manager7dec_refEP3ast.exit, label %5

5:                                                ; preds = %2
  %6 = getelementptr inbounds nuw i8, ptr %4, i64 8
  %7 = load i32, ptr %6, align 4, !tbaa !13
  %8 = add i32 %7, -1
  store i32 %8, ptr %6, align 4, !tbaa !13
  %9 = icmp eq i32 %8, 0
  br i1 %9, label %10, label %_ZN11ast_manager7dec_refEP3ast.exit

10:                                               ; preds = %5
  tail call void @_ZN11ast_manager11delete_nodeEP3ast(ptr noundef nonnull align 8 dereferenceable(976) %1, ptr noundef nonnull %4)
  br label %_ZN11ast_manager7dec_refEP3ast.exit

_ZN11ast_manager7dec_refEP3ast.exit:              ; preds = %2, %5, %10
  store ptr null, ptr %3, align 8, !tbaa !6
  ret void
}